; Function Attrs: mustprogress nounwind uwtable
define hidden noundef i64 @_ZNK8G1Policy21predict_bytes_to_copyEP12G1HeapRegion(ptr nocapture noundef nonnull readonly align 8 dereferenceable(552) %0, ptr noundef %1) local_unnamed_addr #1 align 2 {
  %3 = getelementptr inbounds i8, ptr %1, i64 52
  %4 = load volatile i32, ptr %3, align 4
  %5 = and i32 %4, 2
  %.not = icmp eq i32 %5, 0
  %6 = load ptr, ptr %1, align 8
  %7 = getelementptr inbounds i8, ptr %1, i64 16
  %8 = load volatile ptr, ptr %7, align 8
  %9 = ptrtoint ptr %8 to i64
  %10 = ptrtoint ptr %6 to i64
  br i1 %.not, label %11, label %16

11:                                               ; preds = %2
  %12 = getelementptr inbounds i8, ptr %1, i64 96
  %13 = load i64, ptr %12, align 8
  %14 = add i64 %13, %10
  %15 = sub i64 %9, %14
  br label %56

16:                                               ; preds = %2
  %17 = sub i64 %9, %10
  %18 = uitofp i64 %17 to double
  %19 = getelementptr inbounds i8, ptr %0, i64 8
  %20 = getelementptr inbounds i8, ptr %1, i64 112
  %21 = load ptr, ptr %20, align 8
  %22 = getelementptr inbounds i8, ptr %1, i64 120
  %23 = load i32, ptr %22, align 8
  %24 = getelementptr inbounds i8, ptr %21, i64 4
  %25 = load i32, ptr %24, align 4
  %26 = sub i32 %25, %23
  %27 = load i32, ptr %21, align 8
  %28 = add i32 %27, -1
  %29 = tail call noundef i32 @llvm.umin.i32(i32 %26, i32 %28)
  %30 = getelementptr inbounds i8, ptr %21, i64 32
  %31 = load ptr, ptr %30, align 8
  %32 = zext i32 %29 to i64
  %33 = getelementptr inbounds ptr, ptr %31, i64 %32
  %34 = load ptr, ptr %33, align 8
  %35 = tail call noundef double @_ZNK6AbsSeq4davgEv(ptr noundef nonnull align 8 dereferenceable(56) %34) #18
  %36 = load double, ptr %19, align 8
  %37 = tail call noundef double @_ZNK6AbsSeq3dsdEv(ptr noundef nonnull align 8 dereferenceable(56) %34) #18
  %38 = getelementptr inbounds i8, ptr %34, i64 8
  %39 = load i32, ptr %38, align 8
  %40 = icmp slt i32 %39, 5
  br i1 %40, label %41, label %_ZNK12G1HeapRegion20surv_rate_predictionERK13G1Predictions.exit

41:                                               ; preds = %16
  %42 = tail call noundef double @_ZNK6AbsSeq4davgEv(ptr noundef nonnull align 8 dereferenceable(56) %34) #18
  %43 = sub nsw i32 5, %39
  %44 = uitofp nneg i32 %43 to double
  %45 = fmul double %42, %44
  %46 = fmul double %45, 5.000000e-01
  %47 = fcmp ogt double %46, %37
  %48 = select i1 %47, double %46, double %37
  br label %_ZNK12G1HeapRegion20surv_rate_predictionERK13G1Predictions.exit

_ZNK12G1HeapRegion20surv_rate_predictionERK13G1Predictions.exit: ; preds = %16, %41
  %.0.i.i.i.i.i = phi double [ %48, %41 ], [ %37, %16 ]
  %49 = tail call noundef double @llvm.fmuladd.f64(double %36, double %.0.i.i.i.i.i, double %35)
  %50 = fcmp ogt double %49, 0.000000e+00
  %51 = select i1 %50, double %49, double 0.000000e+00
  %52 = fcmp olt double %51, 1.000000e+00
  %53 = select i1 %52, double %51, double 1.000000e+00
  %54 = fmul double %53, %18
  %55 = fptoui double %54 to i64
  br label %56

56:                                               ; preds = %_ZNK12G1HeapRegion20surv_rate_predictionERK13G1Predictions.exit, %11
  %.0 = phi i64 [ %55, %_ZNK12G1HeapRegion20surv_rate_predictionERK13G1Predictions.exit ], [ %15, %11 ]
  ret i64 %.0
}